(lp0
ccopy_reg
_reconstructor
p1
(csklearn.cluster.k_means_
KMeans
p2
c__builtin__
object
p3
Ntp4
Rp5
(dp6
S'precompute_distances'
p7
I01
sS'n_jobs'
p8
I1
sS'verbose'
p9
I0
sS'n_clusters'
p10
I3
sS'max_iter'
p11
I300
sS'init'
p12
S'random'
p13
sS'random_state'
p14
NsS'n_init'
p15
I10
sS'tol'
p16
F0.0001
sS'copy_x'
p17
I01
sbag1
(g2
g3
Ntp18
Rp19
(dp20
g7
I01
sg8
I1
sg9
I0
sg10
I4
sg11
I300
sg12
g13
sg14
Nsg15
I10
sg16
F0.0001
sg17
I01
sbag1
(g2
g3
Ntp21
Rp22
(dp23
g7
I01
sg8
I1
sg9
I0
sg10
I5
sg11
I300
sg12
g13
sg14
Nsg15
I10
sg16
F0.0001
sg17
I01
sbag1
(g2
g3
Ntp24
Rp25
(dp26
g7
I01
sg8
I1
sg9
I0
sg10
I6
sg11
I300
sg12
g13
sg14
Nsg15
I10
sg16
F0.0001
sg17
I01
sbag1
(g2
g3
Ntp27
Rp28
(dp29
g7
I01
sg8
I1
sg9
I0
sg10
I7
sg11
I300
sg12
g13
sg14
Nsg15
I10
sg16
F0.0001
sg17
I01
sbag1
(g2
g3
Ntp30
Rp31
(dp32
g7
I01
sg8
I1
sg9
I0
sg10
I10
sg11
I300
sg12
g13
sg14
Nsg15
I10
sg16
F0.0001
sg17
I01
sbag1
(g2
g3
Ntp33
Rp34
(dp35
g7
I01
sg8
I1
sg9
I0
sg10
I15
sg11
I300
sg12
g13
sg14
Nsg15
I10
sg16
F0.0001
sg17
I01
sba.